target datalayout = "e-m:e-p270:32:32-p271:32:32-p272:64:64-i64:64-i128:128-f80:128-n8:16:32:64-S128"
target triple = "x86_64-pc-linux-gnu"

@_ZN4llvm3sys17InitializeCOMRAIIC1ENS0_16COMThreadingModeEb = unnamed_addr alias void (ptr, i32, i1), ptr @_ZN4llvm3sys17InitializeCOMRAIIC2ENS0_16COMThreadingModeEb
@_ZN4llvm3sys17InitializeCOMRAIID1Ev = unnamed_addr alias void (ptr), ptr @_ZN4llvm3sys17InitializeCOMRAIID2Ev

; Function Attrs: mustprogress nounwind uwtable
define dso_local void @_ZN4llvm3sys17InitializeCOMRAIIC2ENS0_16COMThreadingModeEb(ptr noundef nonnull align 1 dereferenceable(1) %0, i32 noundef %1, i1 noundef zeroext %2) unnamed_addr #0 align 2 {
  %4 = alloca ptr, align 8
  %5 = alloca i32, align 4
  %6 = alloca i8, align 1
  store ptr %0, ptr %4, align 8
  store i32 %1, ptr %5, align 4
  %7 = zext i1 %2 to i8
  store i8 %7, ptr %6, align 1
  ret void
}

; Function Attrs: mustprogress nounwind uwtable
define dso_local void @_ZN4llvm3sys17InitializeCOMRAIID2Ev(ptr noundef nonnull align 1 dereferenceable(1) %0) unnamed_addr #0 align 2 {
  %2 = alloca ptr, align 8
  store ptr %0, ptr %2, align 8
  ret void
}


!llvm.module.flags = !{!0, !1, !2, !3}

!0 = !{i32 1, !"wchar_size", i32 4}
!1 = !{i32 8, !"PIC Level", i32 2}
!2 = !{i32 7, !"uwtable", i32 2}
!3 = !{i32 7, !"frame-pointer", i32 2}
